; Function Attrs: mustprogress uwtable
define void @_ZN3nix12writePaddingEmRNS_4SinkE(i64 noundef %0, ptr noundef nonnull align 8 dereferenceable(8) %1) local_unnamed_addr #2 {
  %3 = alloca [8 x i8], align 8
  %4 = and i64 %0, 7
  %.not = icmp eq i64 %4, 0
  br i1 %.not, label %10, label %5

5:                                                ; preds = %2
  store i64 0, ptr %3, align 8
  %6 = sub nuw nsw i64 8, %4
  %7 = load ptr, ptr %1, align 8
  %8 = getelementptr inbounds i8, ptr %7, i64 16
  %9 = load ptr, ptr %8, align 8
  call void %9(ptr noundef nonnull align 8 dereferenceable(8) %1, i64 %6, ptr nonnull %3)
  br label %10

10:                                               ; preds = %5, %2
  ret void
}